; Function Attrs: mustprogress nofree norecurse nosync nounwind willreturn memory(read, argmem: readwrite, inaccessiblemem: none) uwtable
define internal void @_ZN19OpenColorIO_v2_4dev12_GLOBAL__N_116ECLinearRenderer10updateDataERSt10shared_ptrIKNS_22ExposureContrastOpDataEE(ptr nocapture noundef nonnull writeonly align 8 dereferenceable(64) %this, ptr nocapture noundef nonnull readonly align 8 dereferenceable(16) %ec) unnamed_addr #11 align 2 {
entry:
  %0 = load ptr, ptr %ec, align 8
  %m_pivot.i = getelementptr inbounds i8, ptr %0, i64 224
  %1 = load double, ptr %m_pivot.i, align 8
  %cmp.i = fcmp ogt double %1, 1.000000e-03
  %.sroa.speculated = select i1 %cmp.i, double %1, double 1.000000e-03
  %conv = fptrunc double %.sroa.speculated to float
  %m_pivot = getelementptr inbounds i8, ptr %this, i64 56
  store float %conv, ptr %m_pivot, align 8
  ret void
}